target datalayout = "e-m:e-p270:32:32-p271:32:32-p272:64:64-i64:64-i128:128-f80:128-n8:16:32:64-S128"
target triple = "x86_64-pc-linux-gnu"

%"struct.Atomic::LoadImpl.10" = type { i8 }
%"struct.Atomic::PlatformLoad.11" = type { i8 }

@_ZN7VMError21_reporting_start_timeE = hidden global i64 -1, align 8
@_ZN7VMError22_reporting_did_timeoutE = hidden global i8 0, align 1
@_ZN7VMError16_step_start_timeE = hidden global i64 -1, align 8
@_ZN7VMError17_step_did_timeoutE = hidden global i8 0, align 1
@ShowMessageBoxOnError = external global i8, align 1
@OnError = external global ptr, align 8
@ErrorLogTimeout = external global i64, align 8
@_ZN9Arguments11_abort_hookE = external global ptr, align 8

; Function Attrs: mustprogress nounwind uwtable
define linkonce_odr hidden noundef i64 @_ZNK6Atomic12PlatformLoadILm8EEclIlEET_PVKS3_(ptr noundef nonnull align 1 dereferenceable(1) %0, ptr noundef %1) #1 comdat align 2 {
  %3 = alloca ptr, align 8
  %4 = alloca ptr, align 8
  store ptr %0, ptr %3, align 8
  store ptr %1, ptr %4, align 8
  %5 = load ptr, ptr %4, align 8
  %6 = load volatile i64, ptr %5, align 8
  ret i64 %6
}

; Function Attrs: mustprogress nounwind uwtable
define linkonce_odr hidden noundef i64 @_ZNK6Atomic8LoadImplIlNS_12PlatformLoadILm8EEEvEclEPVKl(ptr noundef nonnull align 1 dereferenceable(1) %0, ptr noundef %1) #1 comdat align 2 {
  %3 = alloca ptr, align 8
  %4 = alloca ptr, align 8
  %5 = alloca %"struct.Atomic::PlatformLoad.11", align 1
  store ptr %0, ptr %3, align 8
  store ptr %1, ptr %4, align 8
  %6 = load ptr, ptr %4, align 8
  %7 = call noundef i64 @_ZNK6Atomic12PlatformLoadILm8EEclIlEET_PVKS3_(ptr noundef nonnull align 1 dereferenceable(1) %5, ptr noundef %6)
  ret i64 %7
}

; Function Attrs: mustprogress nounwind uwtable
define linkonce_odr hidden noundef i64 @_ZN6Atomic4loadIlEET_PVKS1_(ptr noundef %0) #1 comdat align 2 {
  %2 = alloca ptr, align 8
  %3 = alloca %"struct.Atomic::LoadImpl.10", align 1
  store ptr %0, ptr %2, align 8
  %4 = load ptr, ptr %2, align 8
  %5 = call noundef i64 @_ZNK6Atomic8LoadImplIlNS_12PlatformLoadILm8EEEvEclEPVKl(ptr noundef nonnull align 1 dereferenceable(1) %3, ptr noundef %4)
  ret i64 %5
}

; Function Attrs: mustprogress nounwind uwtable
define linkonce_odr hidden noundef i64 @_Z4MAX2IlET_S0_S0_(i64 noundef %0, i64 noundef %1) #1 comdat {
  %3 = alloca i64, align 8
  %4 = alloca i64, align 8
  store i64 %0, ptr %3, align 8
  store i64 %1, ptr %4, align 8
  %5 = load i64, ptr %3, align 8
  %6 = load i64, ptr %4, align 8
  %7 = icmp sgt i64 %5, %6
  br i1 %7, label %8, label %10

8:                                                ; preds = %2
  %9 = load i64, ptr %3, align 8
  br label %12

10:                                               ; preds = %2
  %11 = load i64, ptr %4, align 8
  br label %12

12:                                               ; preds = %10, %8
  %13 = phi i64 [ %9, %8 ], [ %11, %10 ]
  ret i64 %13
}

; Function Attrs: mustprogress nounwind uwtable
define hidden noundef i64 @_ZN7VMError19get_step_start_timeEv() #1 align 2 {
  %1 = call noundef i64 @_ZN6Atomic4loadIlEET_PVKS1_(ptr noundef @_ZN7VMError16_step_start_timeE)
  ret i64 %1
}

; Function Attrs: mustprogress nounwind uwtable
define hidden noundef i64 @_ZN7VMError24get_reporting_start_timeEv() #1 align 2 {
  %1 = call noundef i64 @_ZN6Atomic4loadIlEET_PVKS1_(ptr noundef @_ZN7VMError21_reporting_start_timeE)
  ret i64 %1
}

; Function Attrs: mustprogress nounwind uwtable
define hidden noundef i64 @_ZN7VMError21get_current_timestampEv() #1 align 2 {
  %1 = call noundef i64 @_ZN2os13javaTimeNanosEv()
  ret i64 %1
}

; Function Attrs: mustprogress nounwind uwtable
define linkonce_odr hidden noundef ptr @_ZN9Arguments10abort_hookEv() #1 comdat align 2 {
  %1 = load ptr, ptr @_ZN9Arguments11_abort_hookE, align 8
  ret ptr %1
}

; Function Attrs: mustprogress nounwind uwtable
define hidden noundef zeroext i1 @_ZN7VMError13check_timeoutEv() #1 align 2 {
  %1 = alloca i1, align 1
  %2 = alloca i8, align 1
  %3 = alloca i64, align 8
  %4 = alloca i64, align 8
  %5 = alloca i64, align 8
  %6 = alloca i64, align 8
  %7 = alloca i32, align 4
  %8 = alloca i64, align 8
  %9 = alloca i64, align 8
  %10 = load i64, ptr @ErrorLogTimeout, align 8
  %11 = icmp eq i64 %10, 0
  br i1 %11, label %12, label %13

12:                                               ; preds = %0
  store i1 false, ptr %1, align 1
  br label %73

13:                                               ; preds = %0
  %14 = load i8, ptr @ShowMessageBoxOnError, align 1
  %15 = trunc i8 %14 to i1
  br i1 %15, label %28, label %16

16:                                               ; preds = %13
  %17 = load ptr, ptr @OnError, align 8
  %18 = icmp ne ptr %17, null
  br i1 %18, label %19, label %25

19:                                               ; preds = %16
  %20 = load ptr, ptr @OnError, align 8
  %21 = getelementptr inbounds i8, ptr %20, i64 0
  %22 = load i8, ptr %21, align 1
  %23 = sext i8 %22 to i32
  %24 = icmp ne i32 %23, 0
  br i1 %24, label %28, label %25

25:                                               ; preds = %19, %16
  %26 = call noundef ptr @_ZN9Arguments10abort_hookEv()
  %27 = icmp ne ptr %26, null
  br label %28

28:                                               ; preds = %25, %19, %13
  %29 = phi i1 [ true, %19 ], [ true, %13 ], [ %27, %25 ]
  %30 = zext i1 %29 to i8
  store i8 %30, ptr %2, align 1
  %31 = call noundef i64 @_ZN7VMError21get_current_timestampEv()
  store i64 %31, ptr %3, align 8
  %32 = load i8, ptr %2, align 1
  %33 = trunc i8 %32 to i1
  br i1 %33, label %52, label %34

34:                                               ; preds = %28
  %35 = call noundef i64 @_ZN7VMError24get_reporting_start_timeEv()
  store i64 %35, ptr %4, align 8
  %36 = load i64, ptr %4, align 8
  %37 = icmp sgt i64 %36, 0
  br i1 %37, label %38, label %51

38:                                               ; preds = %34
  %39 = load i64, ptr %4, align 8
  %40 = load i64, ptr @ErrorLogTimeout, align 8
  %41 = mul nsw i64 %40, 1000000000
  %42 = add nsw i64 %39, %41
  store i64 %42, ptr %5, align 8
  %43 = load i64, ptr %5, align 8
  %44 = load i64, ptr %3, align 8
  %45 = icmp sle i64 %43, %44
  br i1 %45, label %46, label %50

46:                                               ; preds = %38
  %47 = load volatile i8, ptr @_ZN7VMError22_reporting_did_timeoutE, align 1
  %48 = trunc i8 %47 to i1
  br i1 %48, label %50, label %49

49:                                               ; preds = %46
  store volatile i8 1, ptr @_ZN7VMError22_reporting_did_timeoutE, align 1
  call void @_ZN7VMError26interrupt_reporting_threadEv()
  store i1 true, ptr %1, align 1
  br label %73

50:                                               ; preds = %46, %38
  br label %51

51:                                               ; preds = %50, %34
  br label %52

52:                                               ; preds = %51, %28
  %53 = call noundef i64 @_ZN7VMError19get_step_start_timeEv()
  store i64 %53, ptr %6, align 8
  %54 = load i64, ptr %6, align 8
  %55 = icmp sgt i64 %54, 0
  br i1 %55, label %56, label %72

56:                                               ; preds = %52
  store i32 5, ptr %7, align 4
  %57 = load i64, ptr @ErrorLogTimeout, align 8
  %58 = mul nsw i64 %57, 1000000000
  %59 = sdiv i64 %58, 4
  %60 = call noundef i64 @_Z4MAX2IlET_S0_S0_(i64 noundef 5, i64 noundef %59)
  store i64 %60, ptr %8, align 8
  %61 = load i64, ptr %6, align 8
  %62 = load i64, ptr %8, align 8
  %63 = add nsw i64 %61, %62
  store i64 %63, ptr %9, align 8
  %64 = load i64, ptr %9, align 8
  %65 = load i64, ptr %3, align 8
  %66 = icmp sle i64 %64, %65
  br i1 %66, label %67, label %71

67:                                               ; preds = %56
  %68 = load volatile i8, ptr @_ZN7VMError17_step_did_timeoutE, align 1
  %69 = trunc i8 %68 to i1
  br i1 %69, label %71, label %70

70:                                               ; preds = %67
  store volatile i8 1, ptr @_ZN7VMError17_step_did_timeoutE, align 1
  call void @_ZN7VMError26interrupt_reporting_threadEv()
  store i1 false, ptr %1, align 1
  br label %73

71:                                               ; preds = %67, %56
  br label %72

72:                                               ; preds = %71, %52
  store i1 false, ptr %1, align 1
  br label %73

73:                                               ; preds = %72, %70, %49, %12
  %74 = load i1, ptr %1, align 1
  ret i1 %74
}