; Function Attrs: mustprogress nounwind uwtable
define hidden noundef zeroext i1 @_ZN7VMError13check_timeoutEv() local_unnamed_addr #0 align 2 {
  %1 = load i64, ptr @ErrorLogTimeout, align 8
  %2 = icmp eq i64 %1, 0
  br i1 %2, label %36, label %3

3:                                                ; preds = %0
  %4 = load i8, ptr @ShowMessageBoxOnError, align 1
  %5 = trunc i8 %4 to i1
  br i1 %5, label %.thread, label %6

6:                                                ; preds = %3
  %7 = load ptr, ptr @OnError, align 8
  %.not = icmp eq ptr %7, null
  br i1 %.not, label %11, label %8

8:                                                ; preds = %6
  %9 = load i8, ptr %7, align 1
  %.not13 = icmp eq i8 %9, 0
  br i1 %.not13, label %11, label %.thread

.thread:                                          ; preds = %8, %3
  %10 = tail call noundef i64 @_ZN2os13javaTimeNanosEv() #21
  br label %24

11:                                               ; preds = %6, %8
  %12 = load ptr, ptr @_ZN9Arguments11_abort_hookE, align 8
  %.not16 = icmp eq ptr %12, null
  %13 = tail call noundef i64 @_ZN2os13javaTimeNanosEv() #21
  br i1 %.not16, label %14, label %24

14:                                               ; preds = %11
  %15 = load volatile i64, ptr @_ZN7VMError21_reporting_start_timeE, align 8
  %16 = icmp sgt i64 %15, 0
  br i1 %16, label %17, label %24

17:                                               ; preds = %14
  %18 = load i64, ptr @ErrorLogTimeout, align 8
  %19 = mul nsw i64 %18, 1000000000
  %20 = add nsw i64 %19, %15
  %.not14 = icmp sgt i64 %20, %13
  br i1 %.not14, label %24, label %21

21:                                               ; preds = %17
  %22 = load volatile i8, ptr @_ZN7VMError22_reporting_did_timeoutE, align 1
  %23 = trunc i8 %22 to i1
  br i1 %23, label %24, label %.sink.split

24:                                               ; preds = %.thread, %14, %21, %17, %11
  %25 = phi i64 [ %10, %.thread ], [ %13, %14 ], [ %13, %21 ], [ %13, %17 ], [ %13, %11 ]
  %26 = load volatile i64, ptr @_ZN7VMError16_step_start_timeE, align 8
  %27 = icmp sgt i64 %26, 0
  br i1 %27, label %28, label %36

28:                                               ; preds = %24
  %29 = load i64, ptr @ErrorLogTimeout, align 8
  %30 = mul nsw i64 %29, 250000000
  %31 = tail call noundef i64 @llvm.smax.i64(i64 %30, i64 5)
  %32 = add nuw nsw i64 %31, %26
  %.not15 = icmp sgt i64 %32, %25
  br i1 %.not15, label %36, label %33

33:                                               ; preds = %28
  %34 = load volatile i8, ptr @_ZN7VMError17_step_did_timeoutE, align 1
  %35 = trunc i8 %34 to i1
  br i1 %35, label %36, label %.sink.split

.sink.split:                                      ; preds = %33, %21
  %_ZN7VMError17_step_did_timeoutE.sink = phi ptr [ @_ZN7VMError22_reporting_did_timeoutE, %21 ], [ @_ZN7VMError17_step_did_timeoutE, %33 ]
  %.0.ph = phi i1 [ true, %21 ], [ false, %33 ]
  store volatile i8 1, ptr %_ZN7VMError17_step_did_timeoutE.sink, align 1
  tail call void @_ZN7VMError26interrupt_reporting_threadEv() #21
  br label %36

36:                                               ; preds = %.sink.split, %24, %33, %28, %0
  %.0 = phi i1 [ false, %0 ], [ false, %28 ], [ false, %33 ], [ false, %24 ], [ %.0.ph, %.sink.split ]
  ret i1 %.0
}